target datalayout = "e-m:e-p270:32:32-p271:32:32-p272:64:64-i64:64-i128:128-f80:128-n8:16:32:64-S128"
target triple = "x86_64-pc-linux-gnu"

%struct._object = type { %union.anon.41, ptr }
%union.anon.41 = type { i64 }
%struct.PyVarObject = type { %struct._object, i64 }
%struct._typeobject = type { %struct.PyVarObject, ptr, i64, i64, ptr, i64, ptr, ptr, ptr, ptr, ptr, ptr, ptr, ptr, ptr, ptr, ptr, ptr, ptr, i64, ptr, ptr, ptr, ptr, i64, ptr, ptr, ptr, ptr, ptr, ptr, ptr, ptr, ptr, i64, ptr, ptr, ptr, ptr, ptr, ptr, ptr, ptr, ptr, ptr, ptr, i32, ptr, ptr, i8, i16 }

; Function Attrs: inlinehint nounwind uwtable
define internal i32 @_PyType_HasFeature(ptr noundef %0, i64 noundef %1) #4 {
  %3 = alloca ptr, align 8
  %4 = alloca i64, align 8
  store ptr %0, ptr %3, align 8, !tbaa !214
  store i64 %1, ptr %4, align 8, !tbaa !203
  %5 = load ptr, ptr %3, align 8, !tbaa !214
  %6 = getelementptr inbounds nuw %struct._typeobject, ptr %5, i32 0, i32 19
  %7 = load i64, ptr %6, align 8, !tbaa !258
  %8 = load i64, ptr %4, align 8, !tbaa !203
  %9 = and i64 %7, %8
  %10 = icmp ne i64 %9, 0
  %11 = zext i1 %10 to i32
  ret i32 %11
}

; Function Attrs: inlinehint nounwind uwtable
define internal i64 @_PyType_PreHeaderSize(ptr noundef %0) #4 {
  %2 = alloca ptr, align 8
  store ptr %0, ptr %2, align 8, !tbaa !214
  %3 = load ptr, ptr %2, align 8, !tbaa !214
  %4 = call i32 @_PyType_HasFeature(ptr noundef %3, i64 noundef 16384)
  %5 = sext i32 %4 to i64
  %6 = mul i64 %5, 16
  %7 = load ptr, ptr %2, align 8, !tbaa !214
  %8 = call i32 @_PyType_HasFeature(ptr noundef %7, i64 noundef 24)
  %9 = sext i32 %8 to i64
  %10 = mul i64 %9, 2
  %11 = mul i64 %10, 8
  %12 = add i64 %6, %11
  ret i64 %12
}

; Function Attrs: inlinehint nounwind uwtable
define internal ptr @_Py_TYPE(ptr noundef %0) #4 {
  %2 = alloca ptr, align 8
  store ptr %0, ptr %2, align 8, !tbaa !191
  %3 = load ptr, ptr %2, align 8, !tbaa !191
  %4 = getelementptr inbounds nuw %struct._object, ptr %3, i32 0, i32 1
  %5 = load ptr, ptr %4, align 8, !tbaa !233
  ret ptr %5
}

; Function Attrs: nounwind uwtable
define hidden ptr @_PyTraceMalloc_GetObjectTraceback(ptr noundef %0) #0 {
  %2 = alloca ptr, align 8
  %3 = alloca ptr, align 8
  %4 = alloca i64, align 8
  %5 = alloca i64, align 8
  store ptr %0, ptr %2, align 8, !tbaa !191
  call void @llvm.lifetime.start.p0(i64 8, ptr %3) #11
  %6 = load ptr, ptr %2, align 8, !tbaa !191
  %7 = call ptr @_Py_TYPE(ptr noundef %6)
  store ptr %7, ptr %3, align 8, !tbaa !214
  call void @llvm.lifetime.start.p0(i64 8, ptr %4) #11
  %8 = load ptr, ptr %3, align 8, !tbaa !214
  %9 = call i64 @_PyType_PreHeaderSize(ptr noundef %8)
  store i64 %9, ptr %4, align 8, !tbaa !203
  call void @llvm.lifetime.start.p0(i64 8, ptr %5) #11
  %10 = load ptr, ptr %2, align 8, !tbaa !191
  %11 = load i64, ptr %4, align 8, !tbaa !203
  %12 = sub i64 0, %11
  %13 = getelementptr i8, ptr %10, i64 %12
  %14 = ptrtoint ptr %13 to i64
  store i64 %14, ptr %5, align 8, !tbaa !203
  %15 = load i64, ptr %5, align 8, !tbaa !203
  %16 = call ptr @_PyTraceMalloc_GetTraceback(i32 noundef 0, i64 noundef %15)
  call void @llvm.lifetime.end.p0(i64 8, ptr %5) #11
  call void @llvm.lifetime.end.p0(i64 8, ptr %4) #11
  call void @llvm.lifetime.end.p0(i64 8, ptr %3) #11
  ret ptr %16
}