; Function Attrs: nounwind uwtable
define hidden ptr @_PyTraceMalloc_GetObjectTraceback(ptr noundef %0) local_unnamed_addr #0 {
  %2 = getelementptr i8, ptr %0, i64 8
  %.val = load ptr, ptr %2, align 8, !tbaa !211
  %3 = getelementptr i8, ptr %.val, i64 168
  %.val4 = load i64, ptr %3, align 8, !tbaa !212
  %4 = shl i64 %.val4, 49
  %5 = ashr i64 %4, 63
  %6 = and i64 %.val4, 24
  %7 = icmp ne i64 %6, 0
  %.neg = sext i1 %7 to i64
  %.neg5 = add nsw i64 %5, %.neg
  %narrow.i.neg = shl nsw i64 %.neg5, 4
  %8 = getelementptr i8, ptr %0, i64 %narrow.i.neg
  %9 = ptrtoint ptr %8 to i64
  %10 = tail call ptr @_PyTraceMalloc_GetTraceback(i32 noundef 0, i64 noundef %9)
  ret ptr %10
}